; ModuleID = 'bench/openjdk/original/StackStreamFactory.ll'
source_filename = "bench/openjdk/original/StackStreamFactory.ll"
target datalayout = "e-m:e-p270:32:32-p271:32:32-p272:64:64-i64:64-i128:128-f80:128-n8:16:32:64-S128"
target triple = "x86_64-pc-linux-gnu"

; Function Attrs: mustprogress nofree norecurse nosync nounwind willreturn memory(none) uwtable
define noundef zeroext i8 @Java_java_lang_StackStreamFactory_checkStackWalkModes(ptr nocapture noundef readnone %0, ptr nocapture noundef readnone %1) local_unnamed_addr #0 {
  ret i8 1
}

; Function Attrs: nounwind uwtable
define ptr @Java_java_lang_StackStreamFactory_00024AbstractStackWalker_callStackWalk(ptr noundef %0, ptr noundef %1, i32 noundef %2, i32 noundef %3, ptr noundef %4, ptr noundef %5, i32 noundef %6, i32 noundef %7, ptr noundef %8) local_unnamed_addr #1 {
  %10 = tail call ptr @JVM_CallStackWalk(ptr noundef %0, ptr noundef %1, i32 noundef %2, i32 noundef %3, ptr noundef %4, ptr noundef %5, i32 noundef %6, i32 noundef %7, ptr noundef %8) #3
  ret ptr %10
}

declare ptr @JVM_CallStackWalk(ptr noundef, ptr noundef, i32 noundef, i32 noundef, ptr noundef, ptr noundef, i32 noundef, i32 noundef, ptr noundef) local_unnamed_addr #2

; Function Attrs: nounwind uwtable
define i32 @Java_java_lang_StackStreamFactory_00024AbstractStackWalker_fetchStackFrames(ptr noundef %0, ptr noundef %1, i32 noundef %2, i64 noundef %3, i32 noundef %4, i32 noundef %5, i32 noundef %6, ptr noundef %7) local_unnamed_addr #1 {
  %9 = tail call i32 @JVM_MoreStackWalk(ptr noundef %0, ptr noundef %1, i32 noundef %2, i64 noundef %3, i32 noundef %4, i32 noundef %5, i32 noundef %6, ptr noundef %7) #3
  ret i32 %9
}

declare i32 @JVM_MoreStackWalk(ptr noundef, ptr noundef, i32 noundef, i64 noundef, i32 noundef, i32 noundef, i32 noundef, ptr noundef) local_unnamed_addr #2

; Function Attrs: nounwind uwtable
define void @Java_java_lang_StackStreamFactory_00024AbstractStackWalker_setContinuation(ptr noundef %0, ptr noundef %1, i64 noundef %2, ptr noundef %3, ptr noundef %4) local_unnamed_addr #1 {
  tail call void @JVM_SetStackWalkContinuation(ptr noundef %0, ptr noundef %1, i64 noundef %2, ptr noundef %3, ptr noundef %4) #3
  ret void
}

declare void @JVM_SetStackWalkContinuation(ptr noundef, ptr noundef, i64 noundef, ptr noundef, ptr noundef) local_unnamed_addr #2


!llvm.module.flags = !{!0, !1, !2, !3, !4, !5}

!0 = !{i32 7, !"Dwarf Version", i32 5}
!1 = !{i32 2, !"Debug Info Version", i32 3}
!2 = !{i32 1, !"wchar_size", i32 4}
!3 = !{i32 8, !"PIC Level", i32 2}
!4 = !{i32 7, !"uwtable", i32 2}
!5 = !{i32 7, !"frame-pointer", i32 2}
